target datalayout = "e-m:e-p270:32:32-p271:32:32-p272:64:64-i64:64-i128:128-f80:128-n8:16:32:64-S128"
target triple = "x86_64-pc-linux-gnu"

%struct.mi_option_desc_s = type { i64, i32, i32, ptr, ptr }

; Function Attrs: mustprogress uwtable
define i64 @mi_option_get(i32 noundef %0) #0 {
  %2 = alloca i64, align 8
  %3 = alloca i32, align 4
  %4 = alloca ptr, align 8
  store i32 %0, ptr %3, align 4, !tbaa !116
  %5 = load i32, ptr %3, align 4, !tbaa !116
  %6 = icmp slt i32 %5, 0
  br i1 %6, label %10, label %7

7:                                                ; preds = %1
  %8 = load i32, ptr %3, align 4, !tbaa !116
  %9 = icmp sge i32 %8, 37
  br i1 %9, label %10, label %11

10:                                               ; preds = %7, %1
  store i64 0, ptr %2, align 8
  br label %30

11:                                               ; preds = %7
  call void @llvm.lifetime.start.p0(i64 8, ptr %4) #19
  %12 = load i32, ptr %3, align 4, !tbaa !116
  %13 = zext i32 %12 to i64
  %14 = getelementptr inbounds nuw [37 x %struct.mi_option_desc_s], ptr @_ZL7options, i64 0, i64 %13
  store ptr %14, ptr %4, align 8, !tbaa !253
  %15 = load ptr, ptr %4, align 8, !tbaa !253
  %16 = getelementptr inbounds nuw %struct.mi_option_desc_s, ptr %15, i32 0, i32 1
  %17 = load i32, ptr %16, align 8, !tbaa !255
  %18 = icmp eq i32 %17, 0
  %19 = xor i1 %18, true
  %20 = xor i1 %19, true
  %21 = zext i1 %20 to i64
  %22 = call i64 @llvm.expect.i64(i64 %21, i64 0)
  %23 = icmp ne i64 %22, 0
  br i1 %23, label %24, label %26

24:                                               ; preds = %11
  %25 = load ptr, ptr %4, align 8, !tbaa !253
  call void @_ZL14mi_option_initP16mi_option_desc_s(ptr noundef %25)
  br label %26

26:                                               ; preds = %24, %11
  %27 = load ptr, ptr %4, align 8, !tbaa !253
  %28 = getelementptr inbounds nuw %struct.mi_option_desc_s, ptr %27, i32 0, i32 0
  %29 = load i64, ptr %28, align 8, !tbaa !258
  store i64 %29, ptr %2, align 8
  call void @llvm.lifetime.end.p0(i64 8, ptr %4) #19
  br label %30

30:                                               ; preds = %26, %10
  %31 = load i64, ptr %2, align 8
  ret i64 %31
}